target datalayout = "e-m:e-p270:32:32-p271:32:32-p272:64:64-i64:64-i128:128-f80:128-n8:16:32:64-S128"
target triple = "x86_64-pc-linux-gnu"

%"class.nanogui::TextBox" = type { %"class.nanogui::Widget.base", i8, i8, i8, %"class.std::__cxx11::basic_string", %"class.std::__cxx11::basic_string", i32, %"class.std::__cxx11::basic_string", %"class.std::__cxx11::basic_string", i32, %"class.std::function", i8, %"class.std::__cxx11::basic_string", %"class.std::__cxx11::basic_string", i32, i32, %"struct.nanogui::Array", %"struct.nanogui::Array", %"struct.nanogui::Array", i32, float, double }
%"class.nanogui::Widget.base" = type <{ %"class.nanogui::Object.base", [4 x i8], ptr, %"class.nanogui::ref", %"class.nanogui::ref.0", %"struct.nanogui::Array", %"struct.nanogui::Array", %"struct.nanogui::Array", %"class.std::vector", i8, i8, i8, i8, [4 x i8], %"class.std::__cxx11::basic_string", i32, float, i32 }>
%"class.nanogui::Object.base" = type <{ ptr, %"struct.std::atomic" }>
%"struct.std::atomic" = type { %"struct.std::__atomic_base" }
%"struct.std::__atomic_base" = type { i32 }
%"class.nanogui::ref" = type { ptr }
%"class.nanogui::ref.0" = type { ptr }
%"class.std::vector" = type { %"struct.std::_Vector_base" }
%"struct.std::_Vector_base" = type { %"struct.std::_Vector_base<nanogui::Widget *, std::allocator<nanogui::Widget *>>::_Vector_impl" }
%"struct.std::_Vector_base<nanogui::Widget *, std::allocator<nanogui::Widget *>>::_Vector_impl" = type { %"struct.std::_Vector_base<nanogui::Widget *, std::allocator<nanogui::Widget *>>::_Vector_impl_data" }
%"struct.std::_Vector_base<nanogui::Widget *, std::allocator<nanogui::Widget *>>::_Vector_impl_data" = type { ptr, ptr, ptr }
%"class.std::function" = type { %"class.std::_Function_base", ptr }
%"class.std::_Function_base" = type { %"union.std::_Any_data", ptr }
%"union.std::_Any_data" = type { %"union.std::_Nocopy_types" }
%"union.std::_Nocopy_types" = type { { i64, i64 } }
%"class.std::__cxx11::basic_string" = type { %"struct.std::__cxx11::basic_string<char>::_Alloc_hider", i64, %union.anon }
%"struct.std::__cxx11::basic_string<char>::_Alloc_hider" = type { ptr }
%union.anon = type { i64, [8 x i8] }
%"struct.nanogui::Array" = type { [2 x i32] }

@.str = private unnamed_addr constant [1 x i8] zeroinitializer, align 1

; Function Attrs: noreturn nounwind uwtable
define linkonce_odr hidden void @__clang_call_terminate(ptr noundef %0) #10 comdat {
  %2 = call ptr @__cxa_begin_catch(ptr %0) #3
  call void @_ZSt9terminatev() #21
  unreachable
}

; Function Attrs: mustprogress nounwind uwtable
define linkonce_odr dso_local noundef zeroext i1 @_ZNKSt14_Function_base8_M_emptyEv(ptr noundef nonnull align 8 dereferenceable(24) %0) #5 comdat align 2 {
  %2 = alloca ptr, align 8
  store ptr %0, ptr %2, align 8
  %3 = load ptr, ptr %2, align 8
  %4 = getelementptr inbounds %"class.std::_Function_base", ptr %3, i32 0, i32 1
  %5 = load ptr, ptr %4, align 8
  %6 = icmp ne ptr %5, null
  %7 = xor i1 %6, true
  ret i1 %7
}

; Function Attrs: mustprogress uwtable
define linkonce_odr dso_local noundef zeroext i1 @_ZNKSt8functionIFbRKNSt7__cxx1112basic_stringIcSt11char_traitsIcESaIcEEEEEclES7_(ptr noundef nonnull align 8 dereferenceable(32) %0, ptr noundef nonnull align 8 dereferenceable(32) %1) #4 comdat align 2 {
  %3 = alloca ptr, align 8
  %4 = alloca ptr, align 8
  store ptr %0, ptr %3, align 8
  store ptr %1, ptr %4, align 8
  %5 = load ptr, ptr %3, align 8
  %6 = call noundef zeroext i1 @_ZNKSt14_Function_base8_M_emptyEv(ptr noundef nonnull align 8 dereferenceable(24) %5)
  br i1 %6, label %7, label %8

7:                                                ; preds = %2
  call void @_ZSt25__throw_bad_function_callv() #20
  unreachable

8:                                                ; preds = %2
  %9 = getelementptr inbounds %"class.std::function", ptr %5, i32 0, i32 1
  %10 = load ptr, ptr %9, align 8
  %11 = getelementptr inbounds %"class.std::_Function_base", ptr %5, i32 0, i32 0
  %12 = load ptr, ptr %4, align 8
  %13 = call noundef zeroext i1 %10(ptr noundef nonnull align 8 dereferenceable(16) %11, ptr noundef nonnull align 8 dereferenceable(32) %12)
  ret i1 %13
}

; Function Attrs: mustprogress nounwind uwtable
define linkonce_odr dso_local noundef zeroext i1 @_ZNKSt8functionIFbRKNSt7__cxx1112basic_stringIcSt11char_traitsIcESaIcEEEEEcvbEv(ptr noundef nonnull align 8 dereferenceable(32) %0) #5 comdat align 2 personality ptr @__gxx_personality_v0 {
  %2 = alloca ptr, align 8
  store ptr %0, ptr %2, align 8
  %3 = load ptr, ptr %2, align 8
  %4 = invoke noundef zeroext i1 @_ZNKSt14_Function_base8_M_emptyEv(ptr noundef nonnull align 8 dereferenceable(24) %3)
          to label %5 unwind label %7

5:                                                ; preds = %1
  %6 = xor i1 %4, true
  ret i1 %6

7:                                                ; preds = %1
  %8 = landingpad { ptr, i32 }
          catch ptr null
  %9 = extractvalue { ptr, i32 } %8, 0
  call void @__clang_call_terminate(ptr %9) #21
  unreachable
}

; Function Attrs: mustprogress nounwind uwtable
define linkonce_odr dso_local noundef zeroext i1 @_ZSteqIcSt11char_traitsIcESaIcEEbRKNSt7__cxx1112basic_stringIT_T0_T1_EEPKS5_(ptr noundef nonnull align 8 dereferenceable(32) %0, ptr noundef %1) #5 comdat {
  %3 = alloca ptr, align 8
  %4 = alloca ptr, align 8
  store ptr %0, ptr %3, align 8
  store ptr %1, ptr %4, align 8
  %5 = load ptr, ptr %3, align 8
  %6 = load ptr, ptr %4, align 8
  %7 = call noundef i32 @_ZNKSt7__cxx1112basic_stringIcSt11char_traitsIcESaIcEE7compareEPKc(ptr noundef nonnull align 8 dereferenceable(32) %5, ptr noundef %6) #3
  %8 = icmp eq i32 %7, 0
  ret i1 %8
}

; Function Attrs: mustprogress uwtable
define hidden noundef zeroext i1 @_ZN7nanogui7TextBox11focus_eventEb(ptr noundef nonnull align 8 dereferenceable(440) %0, i1 noundef zeroext %1) unnamed_addr #4 align 2 personality ptr @__gxx_personality_v0 {
  %3 = alloca ptr, align 8
  %4 = alloca i8, align 1
  %5 = alloca %"class.std::__cxx11::basic_string", align 8
  %6 = alloca ptr, align 8
  %7 = alloca i32, align 4
  store ptr %0, ptr %3, align 8
  %8 = zext i1 %1 to i8
  store i8 %8, ptr %4, align 1
  %9 = load ptr, ptr %3, align 8
  %10 = load i8, ptr %4, align 1
  %11 = trunc i8 %10 to i1
  %12 = call noundef zeroext i1 @_ZN7nanogui6Widget11focus_eventEb(ptr noundef nonnull align 8 dereferenceable(140) %9, i1 noundef zeroext %11)
  %13 = getelementptr inbounds %"class.nanogui::TextBox", ptr %9, i32 0, i32 4
  call void @_ZNSt7__cxx1112basic_stringIcSt11char_traitsIcESaIcEEC1ERKS4_(ptr noundef nonnull align 8 dereferenceable(32) %5, ptr noundef nonnull align 8 dereferenceable(32) %13)
  %14 = getelementptr inbounds %"class.nanogui::TextBox", ptr %9, i32 0, i32 1
  %15 = load i8, ptr %14, align 4
  %16 = trunc i8 %15 to i1
  br i1 %16, label %17, label %81

17:                                               ; preds = %2
  %18 = load i8, ptr %4, align 1
  %19 = trunc i8 %18 to i1
  br i1 %19, label %20, label %31

20:                                               ; preds = %17
  %21 = getelementptr inbounds %"class.nanogui::TextBox", ptr %9, i32 0, i32 4
  %22 = getelementptr inbounds %"class.nanogui::TextBox", ptr %9, i32 0, i32 12
  %23 = invoke noundef nonnull align 8 dereferenceable(32) ptr @_ZNSt7__cxx1112basic_stringIcSt11char_traitsIcESaIcEEaSERKS4_(ptr noundef nonnull align 8 dereferenceable(32) %22, ptr noundef nonnull align 8 dereferenceable(32) %21)
          to label %24 unwind label %27

24:                                               ; preds = %20
  %25 = getelementptr inbounds %"class.nanogui::TextBox", ptr %9, i32 0, i32 3
  store i8 0, ptr %25, align 2
  %26 = getelementptr inbounds %"class.nanogui::TextBox", ptr %9, i32 0, i32 14
  store i32 0, ptr %26, align 8
  br label %68

27:                                               ; preds = %72, %68, %58, %53, %44, %39, %35, %20
  %28 = landingpad { ptr, i32 }
          cleanup
  %29 = extractvalue { ptr, i32 } %28, 0
  store ptr %29, ptr %6, align 8
  %30 = extractvalue { ptr, i32 } %28, 1
  store i32 %30, ptr %7, align 4
  call void @_ZNSt7__cxx1112basic_stringIcSt11char_traitsIcESaIcEED1Ev(ptr noundef nonnull align 8 dereferenceable(32) %5) #3
  br label %82

31:                                               ; preds = %17
  %32 = getelementptr inbounds %"class.nanogui::TextBox", ptr %9, i32 0, i32 11
  %33 = load i8, ptr %32, align 8
  %34 = trunc i8 %33 to i1
  br i1 %34, label %35, label %50

35:                                               ; preds = %31
  %36 = getelementptr inbounds %"class.nanogui::TextBox", ptr %9, i32 0, i32 12
  %37 = invoke noundef zeroext i1 @_ZSteqIcSt11char_traitsIcESaIcEEbRKNSt7__cxx1112basic_stringIT_T0_T1_EEPKS5_(ptr noundef nonnull align 8 dereferenceable(32) %36, ptr noundef @.str)
          to label %38 unwind label %27

38:                                               ; preds = %35
  br i1 %37, label %39, label %44

39:                                               ; preds = %38
  %40 = getelementptr inbounds %"class.nanogui::TextBox", ptr %9, i32 0, i32 5
  %41 = getelementptr inbounds %"class.nanogui::TextBox", ptr %9, i32 0, i32 4
  %42 = invoke noundef nonnull align 8 dereferenceable(32) ptr @_ZNSt7__cxx1112basic_stringIcSt11char_traitsIcESaIcEEaSERKS4_(ptr noundef nonnull align 8 dereferenceable(32) %41, ptr noundef nonnull align 8 dereferenceable(32) %40)
          to label %43 unwind label %27

43:                                               ; preds = %39
  br label %49

44:                                               ; preds = %38
  %45 = getelementptr inbounds %"class.nanogui::TextBox", ptr %9, i32 0, i32 12
  %46 = getelementptr inbounds %"class.nanogui::TextBox", ptr %9, i32 0, i32 4
  %47 = invoke noundef nonnull align 8 dereferenceable(32) ptr @_ZNSt7__cxx1112basic_stringIcSt11char_traitsIcESaIcEEaSERKS4_(ptr noundef nonnull align 8 dereferenceable(32) %46, ptr noundef nonnull align 8 dereferenceable(32) %45)
          to label %48 unwind label %27

48:                                               ; preds = %44
  br label %49

49:                                               ; preds = %48, %43
  br label %50

50:                                               ; preds = %49, %31
  %51 = getelementptr inbounds %"class.nanogui::TextBox", ptr %9, i32 0, i32 10
  %52 = call noundef zeroext i1 @_ZNKSt8functionIFbRKNSt7__cxx1112basic_stringIcSt11char_traitsIcESaIcEEEEEcvbEv(ptr noundef nonnull align 8 dereferenceable(32) %51) #3
  br i1 %52, label %53, label %62

53:                                               ; preds = %50
  %54 = getelementptr inbounds %"class.nanogui::TextBox", ptr %9, i32 0, i32 10
  %55 = getelementptr inbounds %"class.nanogui::TextBox", ptr %9, i32 0, i32 4
  %56 = invoke noundef zeroext i1 @_ZNKSt8functionIFbRKNSt7__cxx1112basic_stringIcSt11char_traitsIcESaIcEEEEEclES7_(ptr noundef nonnull align 8 dereferenceable(32) %54, ptr noundef nonnull align 8 dereferenceable(32) %55)
          to label %57 unwind label %27

57:                                               ; preds = %53
  br i1 %56, label %62, label %58

58:                                               ; preds = %57
  %59 = getelementptr inbounds %"class.nanogui::TextBox", ptr %9, i32 0, i32 4
  %60 = invoke noundef nonnull align 8 dereferenceable(32) ptr @_ZNSt7__cxx1112basic_stringIcSt11char_traitsIcESaIcEEaSERKS4_(ptr noundef nonnull align 8 dereferenceable(32) %59, ptr noundef nonnull align 8 dereferenceable(32) %5)
          to label %61 unwind label %27

61:                                               ; preds = %58
  br label %62

62:                                               ; preds = %61, %57, %50
  %63 = getelementptr inbounds %"class.nanogui::TextBox", ptr %9, i32 0, i32 11
  store i8 1, ptr %63, align 8
  %64 = getelementptr inbounds %"class.nanogui::TextBox", ptr %9, i32 0, i32 3
  store i8 1, ptr %64, align 2
  %65 = getelementptr inbounds %"class.nanogui::TextBox", ptr %9, i32 0, i32 14
  store i32 -1, ptr %65, align 8
  %66 = getelementptr inbounds %"class.nanogui::TextBox", ptr %9, i32 0, i32 15
  store i32 -1, ptr %66, align 4
  %67 = getelementptr inbounds %"class.nanogui::TextBox", ptr %9, i32 0, i32 20
  store float 0.000000e+00, ptr %67, align 4
  br label %68

68:                                               ; preds = %62, %24
  %69 = getelementptr inbounds %"class.nanogui::TextBox", ptr %9, i32 0, i32 12
  %70 = invoke noundef zeroext i1 @_ZSteqIcSt11char_traitsIcESaIcEEbRKNSt7__cxx1112basic_stringIT_T0_T1_EEPKS5_(ptr noundef nonnull align 8 dereferenceable(32) %69, ptr noundef @.str)
          to label %71 unwind label %27

71:                                               ; preds = %68
  br i1 %70, label %77, label %72

72:                                               ; preds = %71
  %73 = getelementptr inbounds %"class.nanogui::TextBox", ptr %9, i32 0, i32 12
  %74 = getelementptr inbounds %"class.nanogui::TextBox", ptr %9, i32 0, i32 8
  %75 = invoke noundef zeroext i1 @_ZN7nanogui7TextBox12check_formatERKNSt7__cxx1112basic_stringIcSt11char_traitsIcESaIcEEES8_(ptr noundef nonnull align 8 dereferenceable(440) %9, ptr noundef nonnull align 8 dereferenceable(32) %73, ptr noundef nonnull align 8 dereferenceable(32) %74)
          to label %76 unwind label %27

76:                                               ; preds = %72
  br label %77

77:                                               ; preds = %76, %71
  %78 = phi i1 [ true, %71 ], [ %75, %76 ]
  %79 = getelementptr inbounds %"class.nanogui::TextBox", ptr %9, i32 0, i32 11
  %80 = zext i1 %78 to i8
  store i8 %80, ptr %79, align 8
  br label %81

81:                                               ; preds = %77, %2
  call void @_ZNSt7__cxx1112basic_stringIcSt11char_traitsIcESaIcEED1Ev(ptr noundef nonnull align 8 dereferenceable(32) %5) #3
  ret i1 true

82:                                               ; preds = %27
  %83 = load ptr, ptr %6, align 8
  %84 = load i32, ptr %7, align 4
  %85 = insertvalue { ptr, i32 } poison, ptr %83, 0
  %86 = insertvalue { ptr, i32 } %85, i32 %84, 1
  resume { ptr, i32 } %86
}