; Function Attrs: mustprogress uwtable
define hidden noundef zeroext i1 @_ZN7nanogui7TextBox11focus_eventEb(ptr noundef nonnull align 8 dereferenceable(440) %0, i1 noundef zeroext %1) unnamed_addr #3 align 2 personality ptr @__gxx_personality_v0 {
  %3 = alloca %"class.std::__cxx11::basic_string", align 8
  %4 = tail call noundef zeroext i1 @_ZN7nanogui6Widget11focus_eventEb(ptr noundef nonnull align 8 dereferenceable(140) %0, i1 noundef zeroext %1)
  %5 = getelementptr inbounds i8, ptr %0, i64 144
  call void @_ZNSt7__cxx1112basic_stringIcSt11char_traitsIcESaIcEEC1ERKS4_(ptr noundef nonnull align 8 dereferenceable(32) %3, ptr noundef nonnull align 8 dereferenceable(32) %5)
  %6 = getelementptr inbounds i8, ptr %0, i64 140
  %7 = load i8, ptr %6, align 4
  %8 = and i8 %7, 1
  %.not = icmp eq i8 %8, 0
  br i1 %.not, label %54, label %9

9:                                                ; preds = %2
  br i1 %1, label %10, label %18

10:                                               ; preds = %9
  %11 = getelementptr inbounds i8, ptr %0, i64 328
  %12 = invoke noundef nonnull align 8 dereferenceable(32) ptr @_ZNSt7__cxx1112basic_stringIcSt11char_traitsIcESaIcEEaSERKS4_(ptr noundef nonnull align 8 dereferenceable(32) %11, ptr noundef nonnull align 8 dereferenceable(32) %5)
          to label %13 unwind label %16

13:                                               ; preds = %10
  %14 = getelementptr inbounds i8, ptr %0, i64 142
  store i8 0, ptr %14, align 2
  %15 = getelementptr inbounds i8, ptr %0, i64 392
  store i32 0, ptr %15, align 8
  br label %43

16:                                               ; preds = %.invoke, %31, %47, %36, %10
  %17 = landingpad { ptr, i32 }
          cleanup
  call void @_ZNSt7__cxx1112basic_stringIcSt11char_traitsIcESaIcEED1Ev(ptr noundef nonnull align 8 dereferenceable(32) %3) #27
  resume { ptr, i32 } %17

18:                                               ; preds = %9
  %19 = getelementptr inbounds i8, ptr %0, i64 320
  %20 = load i8, ptr %19, align 8
  %21 = and i8 %20, 1
  %.not4 = icmp eq i8 %21, 0
  br i1 %.not4, label %28, label %.invoke

.invoke:                                          ; preds = %18
  %22 = getelementptr inbounds i8, ptr %0, i64 328
  %23 = call noundef i32 @_ZNKSt7__cxx1112basic_stringIcSt11char_traitsIcESaIcEE7compareEPKc(ptr noundef nonnull align 8 dereferenceable(32) %22, ptr noundef nonnull @.str) #27
  %24 = icmp eq i32 %23, 0
  %25 = getelementptr inbounds i8, ptr %0, i64 176
  %26 = select i1 %24, ptr %25, ptr %22
  %27 = invoke noundef nonnull align 8 dereferenceable(32) ptr @_ZNSt7__cxx1112basic_stringIcSt11char_traitsIcESaIcEEaSERKS4_(ptr noundef nonnull align 8 dereferenceable(32) %5, ptr noundef nonnull align 8 dereferenceable(32) %26)
          to label %28 unwind label %16

28:                                               ; preds = %.invoke, %18
  %29 = getelementptr inbounds i8, ptr %0, i64 304
  %30 = load ptr, ptr %29, align 8
  %.not.i.i.not = icmp eq ptr %30, null
  br i1 %.not.i.i.not, label %38, label %31

31:                                               ; preds = %28
  %32 = getelementptr inbounds i8, ptr %0, i64 288
  %33 = getelementptr inbounds i8, ptr %0, i64 312
  %34 = load ptr, ptr %33, align 8
  %35 = invoke noundef zeroext i1 %34(ptr noundef nonnull align 8 dereferenceable(16) %32, ptr noundef nonnull align 8 dereferenceable(32) %5)
          to label %_ZNKSt8functionIFbRKNSt7__cxx1112basic_stringIcSt11char_traitsIcESaIcEEEEEclES7_.exit unwind label %16

_ZNKSt8functionIFbRKNSt7__cxx1112basic_stringIcSt11char_traitsIcESaIcEEEEEclES7_.exit: ; preds = %31
  br i1 %35, label %38, label %36

36:                                               ; preds = %_ZNKSt8functionIFbRKNSt7__cxx1112basic_stringIcSt11char_traitsIcESaIcEEEEEclES7_.exit
  %37 = invoke noundef nonnull align 8 dereferenceable(32) ptr @_ZNSt7__cxx1112basic_stringIcSt11char_traitsIcESaIcEEaSERKS4_(ptr noundef nonnull align 8 dereferenceable(32) %5, ptr noundef nonnull align 8 dereferenceable(32) %3)
          to label %38 unwind label %16

38:                                               ; preds = %36, %_ZNKSt8functionIFbRKNSt7__cxx1112basic_stringIcSt11char_traitsIcESaIcEEEEEclES7_.exit, %28
  store i8 1, ptr %19, align 8
  %39 = getelementptr inbounds i8, ptr %0, i64 142
  store i8 1, ptr %39, align 2
  %40 = getelementptr inbounds i8, ptr %0, i64 392
  store i32 -1, ptr %40, align 8
  %41 = getelementptr inbounds i8, ptr %0, i64 396
  store i32 -1, ptr %41, align 4
  %42 = getelementptr inbounds i8, ptr %0, i64 428
  store float 0.000000e+00, ptr %42, align 4
  br label %43

43:                                               ; preds = %38, %13
  %44 = getelementptr inbounds i8, ptr %0, i64 328
  %45 = call noundef i32 @_ZNKSt7__cxx1112basic_stringIcSt11char_traitsIcESaIcEE7compareEPKc(ptr noundef nonnull align 8 dereferenceable(32) %44, ptr noundef nonnull @.str) #27
  %46 = icmp eq i32 %45, 0
  br i1 %46, label %50, label %47

47:                                               ; preds = %43
  %48 = getelementptr inbounds i8, ptr %0, i64 248
  %49 = invoke noundef zeroext i1 @_ZN7nanogui7TextBox12check_formatERKNSt7__cxx1112basic_stringIcSt11char_traitsIcESaIcEEES8_(ptr nonnull align 8 poison, ptr noundef nonnull align 8 dereferenceable(32) %44, ptr noundef nonnull align 8 dereferenceable(32) %48)
          to label %50 unwind label %16

50:                                               ; preds = %47, %43
  %51 = phi i1 [ true, %43 ], [ %49, %47 ]
  %52 = getelementptr inbounds i8, ptr %0, i64 320
  %53 = zext i1 %51 to i8
  store i8 %53, ptr %52, align 8
  br label %54

54:                                               ; preds = %50, %2
  call void @_ZNSt7__cxx1112basic_stringIcSt11char_traitsIcESaIcEED1Ev(ptr noundef nonnull align 8 dereferenceable(32) %3) #27
  ret i1 true
}